target datalayout = "e-m:e-p270:32:32-p271:32:32-p272:64:64-i64:64-i128:128-f80:128-n8:16:32:64-S128"
target triple = "x86_64-pc-linux-gnu"

%"class.std::__cxx11::basic_string" = type { %"struct.std::__cxx11::basic_string<char>::_Alloc_hider", i64, %union.anon }
%"struct.std::__cxx11::basic_string<char>::_Alloc_hider" = type { ptr }
%union.anon = type { i64, [8 x i8] }
%"class.std::__shared_count" = type { ptr }
%struct.PJconsts = type <{ ptr, ptr, ptr, ptr, ptr, ptr, ptr, ptr, ptr, ptr, ptr, ptr, i32, [4 x i8], ptr, ptr, ptr, ptr, ptr, ptr, ptr, ptr, double, double, double, double, double, double, double, double, double, double, double, double, double, double, double, double, double, double, double, double, double, double, i32, i32, i32, i32, i32, i32, i32, i32, i32, i32, i32, [4 x i8], ptr, ptr, ptr, ptr, ptr, ptr, double, double, double, double, double, double, double, double, double, double, double, i32, [4 x i8], [7 x double], i32, [4 x i8], ptr, ptr, double, double, i32, [4 x i8], %"class.std::shared_ptr.4", i8, [7 x i8], double, i8, [7 x i8], %"class.std::__cxx11::basic_string", %"class.std::__cxx11::basic_string", %"class.std::__cxx11::basic_string", i8, [7 x i8], %"class.std::vector.42", i32, [4 x i8], %"class.std::vector.47", i32, i8, i8, i8, i8 }>
%"class.std::shared_ptr.4" = type { %"class.std::__shared_ptr.5" }
%"class.std::__shared_ptr.5" = type { ptr, %"class.std::__shared_count" }
%"class.std::vector.42" = type { %"struct.std::_Vector_base.43" }
%"struct.std::_Vector_base.43" = type { %"struct.std::_Vector_base<osgeo::proj::operation::GridDescription, std::allocator<osgeo::proj::operation::GridDescription>>::_Vector_impl" }
%"struct.std::_Vector_base<osgeo::proj::operation::GridDescription, std::allocator<osgeo::proj::operation::GridDescription>>::_Vector_impl" = type { %"struct.std::_Vector_base<osgeo::proj::operation::GridDescription, std::allocator<osgeo::proj::operation::GridDescription>>::_Vector_impl_data" }
%"struct.std::_Vector_base<osgeo::proj::operation::GridDescription, std::allocator<osgeo::proj::operation::GridDescription>>::_Vector_impl_data" = type { ptr, ptr, ptr }
%"class.std::vector.47" = type { %"struct.std::_Vector_base.48" }
%"struct.std::_Vector_base.48" = type { %"struct.std::_Vector_base<PJCoordOperation, std::allocator<PJCoordOperation>>::_Vector_impl" }
%"struct.std::_Vector_base<PJCoordOperation, std::allocator<PJCoordOperation>>::_Vector_impl" = type { %"struct.std::_Vector_base<PJCoordOperation, std::allocator<PJCoordOperation>>::_Vector_impl_data" }
%"struct.std::_Vector_base<PJCoordOperation, std::allocator<PJCoordOperation>>::_Vector_impl_data" = type { ptr, ptr, ptr }
%"class.dropbox::oxygen::nn.3" = type { %"class.std::shared_ptr.4" }
%"struct.osgeo::proj::util::BaseObjectNNPtr" = type { %"class.dropbox::oxygen::nn.3" }
%"class.dropbox::oxygen::nn.195" = type { %"class.std::shared_ptr.196" }
%"class.std::shared_ptr.196" = type { %"class.std::__shared_ptr.197" }
%"class.std::__shared_ptr.197" = type { ptr, %"class.std::__shared_count" }
%"struct.std::_Vector_base.417" = type { %"struct.std::_Vector_base<dropbox::oxygen::nn<std::shared_ptr<osgeo::proj::datum::Datum>>, std::allocator<dropbox::oxygen::nn<std::shared_ptr<osgeo::proj::datum::Datum>>>>::_Vector_impl" }
%"struct.std::_Vector_base<dropbox::oxygen::nn<std::shared_ptr<osgeo::proj::datum::Datum>>, std::allocator<dropbox::oxygen::nn<std::shared_ptr<osgeo::proj::datum::Datum>>>>::_Vector_impl" = type { %"struct.std::_Vector_base<dropbox::oxygen::nn<std::shared_ptr<osgeo::proj::datum::Datum>>, std::allocator<dropbox::oxygen::nn<std::shared_ptr<osgeo::proj::datum::Datum>>>>::_Vector_impl_data" }
%"struct.std::_Vector_base<dropbox::oxygen::nn<std::shared_ptr<osgeo::proj::datum::Datum>>, std::allocator<dropbox::oxygen::nn<std::shared_ptr<osgeo::proj::datum::Datum>>>>::_Vector_impl_data" = type { ptr, ptr, ptr }
%"class.std::_Sp_counted_base" = type { ptr, i32, i32 }

@_ZTIN5osgeo4proj4util10BaseObjectE = external constant ptr
@.str.2 = private unnamed_addr constant [23 x i8] c"missing required input\00", align 1
@_ZTIN5osgeo4proj5datum13DatumEnsembleE = external constant ptr
@.str.74 = private unnamed_addr constant [30 x i8] c"Object is not a DatumEnsemble\00", align 1
@__FUNCTION__.proj_datum_ensemble_get_member = private unnamed_addr constant [31 x i8] c"proj_datum_ensemble_get_member\00", align 1
@.str.75 = private unnamed_addr constant [21 x i8] c"Invalid member_index\00", align 1
@__libc_single_threaded = external global i8, align 1

; Function Attrs: noreturn nounwind uwtable
define linkonce_odr hidden void @__clang_call_terminate(ptr noundef %0) #10 comdat {
  %2 = call ptr @__cxa_begin_catch(ptr %0) #19
  call void @_ZSt9terminatev() #21
  unreachable
}

; Function Attrs: mustprogress uwtable
define linkonce_odr void @_ZNSt16_Sp_counted_baseILN9__gnu_cxx12_Lock_policyE2EE15_M_add_ref_copyEv(ptr noundef nonnull align 8 dereferenceable(16) %0) #2 comdat align 2 {
  %2 = alloca ptr, align 8
  %3 = alloca i32, align 4
  %4 = alloca i32, align 4
  %5 = alloca i32, align 4
  %6 = alloca ptr, align 8
  %7 = alloca i32, align 4
  %8 = alloca ptr, align 8
  %9 = alloca i32, align 4
  %10 = alloca ptr, align 8
  store ptr %0, ptr %10, align 8
  %11 = load ptr, ptr %10, align 8
  %12 = getelementptr inbounds %"class.std::_Sp_counted_base", ptr %11, i32 0, i32 1
  store ptr %12, ptr %8, align 8
  store i32 1, ptr %9, align 4
  %13 = load i8, ptr @__libc_single_threaded, align 1
  %14 = icmp ne i8 %13, 0
  br i1 %14, label %15, label %22

15:                                               ; preds = %1
  %16 = load ptr, ptr %8, align 8
  %17 = load i32, ptr %9, align 4
  store ptr %16, ptr %6, align 8
  store i32 %17, ptr %7, align 4
  %18 = load i32, ptr %7, align 4
  %19 = load ptr, ptr %6, align 8
  %20 = load i32, ptr %19, align 4
  %21 = add nsw i32 %20, %18
  store i32 %21, ptr %19, align 4
  br label %29

22:                                               ; preds = %1
  %23 = load ptr, ptr %8, align 8
  %24 = load i32, ptr %9, align 4
  store ptr %23, ptr %2, align 8
  store i32 %24, ptr %3, align 4
  %25 = load ptr, ptr %2, align 8
  %26 = load i32, ptr %3, align 4
  store i32 %26, ptr %4, align 4
  %27 = load i32, ptr %4, align 4
  %28 = atomicrmw volatile add ptr %25, i32 %27 acq_rel, align 4
  store i32 %28, ptr %5, align 4
  br label %29

29:                                               ; preds = %22, %15
  ret void
}

; Function Attrs: mustprogress nounwind uwtable
define linkonce_odr void @_ZNSt14__shared_countILN9__gnu_cxx12_Lock_policyE2EEC2ERKS2_(ptr noundef nonnull align 8 dereferenceable(8) %0, ptr noundef nonnull align 8 dereferenceable(8) %1) unnamed_addr #0 comdat align 2 personality ptr @__gxx_personality_v0 {
  %3 = alloca ptr, align 8
  %4 = alloca ptr, align 8
  store ptr %0, ptr %3, align 8
  store ptr %1, ptr %4, align 8
  %5 = load ptr, ptr %3, align 8
  %6 = getelementptr inbounds %"class.std::__shared_count", ptr %5, i32 0, i32 0
  %7 = load ptr, ptr %4, align 8
  %8 = getelementptr inbounds %"class.std::__shared_count", ptr %7, i32 0, i32 0
  %9 = load ptr, ptr %8, align 8
  store ptr %9, ptr %6, align 8
  %10 = getelementptr inbounds %"class.std::__shared_count", ptr %5, i32 0, i32 0
  %11 = load ptr, ptr %10, align 8
  %12 = icmp ne ptr %11, null
  br i1 %12, label %13, label %17

13:                                               ; preds = %2
  %14 = getelementptr inbounds %"class.std::__shared_count", ptr %5, i32 0, i32 0
  %15 = load ptr, ptr %14, align 8
  invoke void @_ZNSt16_Sp_counted_baseILN9__gnu_cxx12_Lock_policyE2EE15_M_add_ref_copyEv(ptr noundef nonnull align 8 dereferenceable(16) %15)
          to label %16 unwind label %18

16:                                               ; preds = %13
  br label %17

17:                                               ; preds = %16, %2
  ret void

18:                                               ; preds = %13
  %19 = landingpad { ptr, i32 }
          catch ptr null
  %20 = extractvalue { ptr, i32 } %19, 0
  call void @__clang_call_terminate(ptr %20) #21
  unreachable
}

; Function Attrs: mustprogress nounwind uwtable
define linkonce_odr void @_ZNSt12__shared_ptrIN5osgeo4proj4util10BaseObjectELN9__gnu_cxx12_Lock_policyE2EEC2INS1_5datum5DatumEvEERKS_IT_LS5_2EE(ptr noundef nonnull align 8 dereferenceable(16) %0, ptr noundef nonnull align 8 dereferenceable(16) %1) unnamed_addr #0 comdat align 2 {
  %3 = alloca ptr, align 8
  %4 = alloca ptr, align 8
  store ptr %0, ptr %3, align 8
  store ptr %1, ptr %4, align 8
  %5 = load ptr, ptr %3, align 8
  %6 = getelementptr inbounds %"class.std::__shared_ptr.5", ptr %5, i32 0, i32 0
  %7 = load ptr, ptr %4, align 8
  %8 = getelementptr inbounds %"class.std::__shared_ptr.197", ptr %7, i32 0, i32 0
  %9 = load ptr, ptr %8, align 8
  store ptr %9, ptr %6, align 8
  %10 = getelementptr inbounds %"class.std::__shared_ptr.5", ptr %5, i32 0, i32 1
  %11 = load ptr, ptr %4, align 8
  %12 = getelementptr inbounds %"class.std::__shared_ptr.197", ptr %11, i32 0, i32 1
  call void @_ZNSt14__shared_countILN9__gnu_cxx12_Lock_policyE2EEC2ERKS2_(ptr noundef nonnull align 8 dereferenceable(8) %10, ptr noundef nonnull align 8 dereferenceable(8) %12) #19
  ret void
}

; Function Attrs: mustprogress nounwind uwtable
define linkonce_odr void @_ZNSt10shared_ptrIN5osgeo4proj4util10BaseObjectEEC2INS1_5datum5DatumEvEERKS_IT_E(ptr noundef nonnull align 8 dereferenceable(16) %0, ptr noundef nonnull align 8 dereferenceable(16) %1) unnamed_addr #0 comdat align 2 {
  %3 = alloca ptr, align 8
  %4 = alloca ptr, align 8
  store ptr %0, ptr %3, align 8
  store ptr %1, ptr %4, align 8
  %5 = load ptr, ptr %3, align 8
  %6 = load ptr, ptr %4, align 8
  call void @_ZNSt12__shared_ptrIN5osgeo4proj4util10BaseObjectELN9__gnu_cxx12_Lock_policyE2EEC2INS1_5datum5DatumEvEERKS_IT_LS5_2EE(ptr noundef nonnull align 8 dereferenceable(16) %5, ptr noundef nonnull align 8 dereferenceable(16) %6) #19
  ret void
}

; Function Attrs: mustprogress nounwind uwtable
define linkonce_odr hidden noundef nonnull align 8 dereferenceable(16) ptr @_ZNKR7dropbox6oxygen2nnISt10shared_ptrIN5osgeo4proj5datum5DatumEEEcvRKS7_Ev(ptr noundef nonnull align 8 dereferenceable(16) %0) #0 comdat align 2 {
  %2 = alloca ptr, align 8
  store ptr %0, ptr %2, align 8
  %3 = load ptr, ptr %2, align 8
  %4 = getelementptr inbounds %"class.dropbox::oxygen::nn.195", ptr %3, i32 0, i32 0
  ret ptr %4
}

; Function Attrs: mustprogress uwtable
define linkonce_odr hidden void @_ZN7dropbox6oxygen2nnISt10shared_ptrIN5osgeo4proj4util10BaseObjectEEEC2IS2_INS4_5datum5DatumEETnNSt9enable_ifIXsr3std14is_convertibleIT_S7_EE5valueEiE4typeELi0EEERKNS1_ISE_EE(ptr noundef nonnull align 8 dereferenceable(16) %0, ptr noundef nonnull align 8 dereferenceable(16) %1) unnamed_addr #2 comdat align 2 {
  %3 = alloca ptr, align 8
  %4 = alloca ptr, align 8
  store ptr %0, ptr %3, align 8
  store ptr %1, ptr %4, align 8
  %5 = load ptr, ptr %3, align 8
  %6 = getelementptr inbounds %"class.dropbox::oxygen::nn.3", ptr %5, i32 0, i32 0
  %7 = load ptr, ptr %4, align 8
  %8 = call noundef nonnull align 8 dereferenceable(16) ptr @_ZNKR7dropbox6oxygen2nnISt10shared_ptrIN5osgeo4proj5datum5DatumEEEcvRKS7_Ev(ptr noundef nonnull align 8 dereferenceable(16) %7)
  call void @_ZNSt10shared_ptrIN5osgeo4proj4util10BaseObjectEEC2INS1_5datum5DatumEvEERKS_IT_E(ptr noundef nonnull align 8 dereferenceable(16) %6, ptr noundef nonnull align 8 dereferenceable(16) %8) #19
  ret void
}

; Function Attrs: mustprogress uwtable
define linkonce_odr hidden void @_ZN5osgeo4proj4util15BaseObjectNNPtrC2INS0_5datum5DatumEEERKN7dropbox6oxygen2nnISt10shared_ptrIT_EEE(ptr noundef nonnull align 8 dereferenceable(16) %0, ptr noundef nonnull align 8 dereferenceable(16) %1) unnamed_addr #2 comdat align 2 {
  %3 = alloca ptr, align 8
  %4 = alloca ptr, align 8
  store ptr %0, ptr %3, align 8
  store ptr %1, ptr %4, align 8
  %5 = load ptr, ptr %3, align 8
  %6 = load ptr, ptr %4, align 8
  call void @_ZN7dropbox6oxygen2nnISt10shared_ptrIN5osgeo4proj4util10BaseObjectEEEC2IS2_INS4_5datum5DatumEETnNSt9enable_ifIXsr3std14is_convertibleIT_S7_EE5valueEiE4typeELi0EEERKNS1_ISE_EE(ptr noundef nonnull align 8 dereferenceable(16) %5, ptr noundef nonnull align 8 dereferenceable(16) %6)
  ret void
}

; Function Attrs: mustprogress nounwind uwtable
define linkonce_odr hidden noundef nonnull align 8 dereferenceable(16) ptr @_ZNKSt6vectorIN7dropbox6oxygen2nnISt10shared_ptrIN5osgeo4proj5datum5DatumEEEESaIS9_EEixEm(ptr noundef nonnull align 8 dereferenceable(24) %0, i64 noundef %1) #0 comdat align 2 {
  %3 = alloca ptr, align 8
  %4 = alloca i64, align 8
  store ptr %0, ptr %3, align 8
  store i64 %1, ptr %4, align 8
  %5 = load ptr, ptr %3, align 8
  %6 = getelementptr inbounds %"struct.std::_Vector_base.417", ptr %5, i32 0, i32 0
  %7 = getelementptr inbounds %"struct.std::_Vector_base<dropbox::oxygen::nn<std::shared_ptr<osgeo::proj::datum::Datum>>, std::allocator<dropbox::oxygen::nn<std::shared_ptr<osgeo::proj::datum::Datum>>>>::_Vector_impl_data", ptr %6, i32 0, i32 0
  %8 = load ptr, ptr %7, align 8
  %9 = load i64, ptr %4, align 8
  %10 = getelementptr inbounds %"class.dropbox::oxygen::nn.195", ptr %8, i64 %9
  ret ptr %10
}

; Function Attrs: mustprogress nounwind uwtable
define linkonce_odr hidden noundef i64 @_ZNKSt6vectorIN7dropbox6oxygen2nnISt10shared_ptrIN5osgeo4proj5datum5DatumEEEESaIS9_EE4sizeEv(ptr noundef nonnull align 8 dereferenceable(24) %0) #0 comdat align 2 {
  %2 = alloca ptr, align 8
  store ptr %0, ptr %2, align 8
  %3 = load ptr, ptr %2, align 8
  %4 = getelementptr inbounds %"struct.std::_Vector_base.417", ptr %3, i32 0, i32 0
  %5 = getelementptr inbounds %"struct.std::_Vector_base<dropbox::oxygen::nn<std::shared_ptr<osgeo::proj::datum::Datum>>, std::allocator<dropbox::oxygen::nn<std::shared_ptr<osgeo::proj::datum::Datum>>>>::_Vector_impl_data", ptr %4, i32 0, i32 1
  %6 = load ptr, ptr %5, align 8
  %7 = getelementptr inbounds %"struct.std::_Vector_base.417", ptr %3, i32 0, i32 0
  %8 = getelementptr inbounds %"struct.std::_Vector_base<dropbox::oxygen::nn<std::shared_ptr<osgeo::proj::datum::Datum>>, std::allocator<dropbox::oxygen::nn<std::shared_ptr<osgeo::proj::datum::Datum>>>>::_Vector_impl_data", ptr %7, i32 0, i32 0
  %9 = load ptr, ptr %8, align 8
  %10 = ptrtoint ptr %6 to i64
  %11 = ptrtoint ptr %9 to i64
  %12 = sub i64 %10, %11
  %13 = sdiv exact i64 %12, 16
  ret i64 %13
}

; Function Attrs: mustprogress nounwind uwtable
define linkonce_odr noundef ptr @_ZNKSt12__shared_ptrIN5osgeo4proj4util10BaseObjectELN9__gnu_cxx12_Lock_policyE2EE3getEv(ptr noundef nonnull align 8 dereferenceable(16) %0) #0 comdat align 2 {
  %2 = alloca ptr, align 8
  store ptr %0, ptr %2, align 8
  %3 = load ptr, ptr %2, align 8
  %4 = getelementptr inbounds %"class.std::__shared_ptr.5", ptr %3, i32 0, i32 0
  %5 = load ptr, ptr %4, align 8
  ret ptr %5
}

; Function Attrs: mustprogress uwtable
define ptr @proj_datum_ensemble_get_member(ptr noundef %0, ptr noundef %1, i32 noundef %2) #2 personality ptr @__gxx_personality_v0 {
  %4 = alloca ptr, align 8
  %5 = alloca ptr, align 8
  %6 = alloca ptr, align 8
  %7 = alloca i32, align 4
  %8 = alloca ptr, align 8
  %9 = alloca %"struct.osgeo::proj::util::BaseObjectNNPtr", align 8
  %10 = alloca ptr, align 8
  %11 = alloca i32, align 4
  store ptr %0, ptr %5, align 8
  store ptr %1, ptr %6, align 8
  store i32 %2, ptr %7, align 4
  br label %12

12:                                               ; preds = %3
  %13 = load ptr, ptr %5, align 8
  %14 = icmp eq ptr %13, null
  br i1 %14, label %15, label %17

15:                                               ; preds = %12
  %16 = call noundef ptr @_Z18pj_get_default_ctxv()
  store ptr %16, ptr %5, align 8
  br label %17

17:                                               ; preds = %15, %12
  br label %18

18:                                               ; preds = %17
  %19 = load ptr, ptr %6, align 8
  %20 = icmp ne ptr %19, null
  br i1 %20, label %24, label %21

21:                                               ; preds = %18
  %22 = load ptr, ptr %5, align 8
  call void @_Z22proj_context_errno_setP6pj_ctxi(ptr noundef %22, i32 noundef 4097)
  %23 = load ptr, ptr %5, align 8
  call void @_ZL14proj_log_errorP6pj_ctxPKcS2_(ptr noundef %23, ptr noundef @__FUNCTION__.proj_datum_ensemble_get_member, ptr noundef @.str.2)
  store ptr null, ptr %4, align 8
  br label %63

24:                                               ; preds = %18
  %25 = load ptr, ptr %6, align 8
  %26 = getelementptr inbounds %struct.PJconsts, ptr %25, i32 0, i32 84
  %27 = call noundef ptr @_ZNKSt12__shared_ptrIN5osgeo4proj4util10BaseObjectELN9__gnu_cxx12_Lock_policyE2EE3getEv(ptr noundef nonnull align 8 dereferenceable(16) %26) #19
  %28 = icmp eq ptr %27, null
  br i1 %28, label %31, label %29

29:                                               ; preds = %24
  %30 = call ptr @__dynamic_cast(ptr %27, ptr @_ZTIN5osgeo4proj4util10BaseObjectE, ptr @_ZTIN5osgeo4proj5datum13DatumEnsembleE, i64 0) #19
  br label %32

31:                                               ; preds = %24
  br label %32

32:                                               ; preds = %31, %29
  %33 = phi ptr [ %30, %29 ], [ null, %31 ]
  store ptr %33, ptr %8, align 8
  %34 = load ptr, ptr %8, align 8
  %35 = icmp ne ptr %34, null
  br i1 %35, label %38, label %36

36:                                               ; preds = %32
  %37 = load ptr, ptr %5, align 8
  call void @_ZL14proj_log_errorP6pj_ctxPKcS2_(ptr noundef %37, ptr noundef @__FUNCTION__.proj_datum_ensemble_get_member, ptr noundef @.str.74)
  store ptr null, ptr %4, align 8
  br label %63

38:                                               ; preds = %32
  %39 = load i32, ptr %7, align 4
  %40 = icmp slt i32 %39, 0
  br i1 %40, label %48, label %41

41:                                               ; preds = %38
  %42 = load i32, ptr %7, align 4
  %43 = load ptr, ptr %8, align 8
  %44 = call noundef nonnull align 8 dereferenceable(24) ptr @_ZNK5osgeo4proj5datum13DatumEnsemble6datumsEv(ptr noundef nonnull align 8 dereferenceable(64) %43)
  %45 = call noundef i64 @_ZNKSt6vectorIN7dropbox6oxygen2nnISt10shared_ptrIN5osgeo4proj5datum5DatumEEEESaIS9_EE4sizeEv(ptr noundef nonnull align 8 dereferenceable(24) %44) #19
  %46 = trunc i64 %45 to i32
  %47 = icmp sge i32 %42, %46
  br i1 %47, label %48, label %50

48:                                               ; preds = %41, %38
  %49 = load ptr, ptr %5, align 8
  call void @_ZL14proj_log_errorP6pj_ctxPKcS2_(ptr noundef %49, ptr noundef @__FUNCTION__.proj_datum_ensemble_get_member, ptr noundef @.str.75)
  store ptr null, ptr %4, align 8
  br label %63

50:                                               ; preds = %41
  %51 = load ptr, ptr %5, align 8
  %52 = load ptr, ptr %8, align 8
  %53 = call noundef nonnull align 8 dereferenceable(24) ptr @_ZNK5osgeo4proj5datum13DatumEnsemble6datumsEv(ptr noundef nonnull align 8 dereferenceable(64) %52)
  %54 = load i32, ptr %7, align 4
  %55 = sext i32 %54 to i64
  %56 = call noundef nonnull align 8 dereferenceable(16) ptr @_ZNKSt6vectorIN7dropbox6oxygen2nnISt10shared_ptrIN5osgeo4proj5datum5DatumEEEESaIS9_EEixEm(ptr noundef nonnull align 8 dereferenceable(24) %53, i64 noundef %55) #19
  call void @_ZN5osgeo4proj4util15BaseObjectNNPtrC2INS0_5datum5DatumEEERKN7dropbox6oxygen2nnISt10shared_ptrIT_EEE(ptr noundef nonnull align 8 dereferenceable(16) %9, ptr noundef nonnull align 8 dereferenceable(16) %56)
  %57 = invoke noundef ptr @_Z13pj_obj_createP6pj_ctxRKN5osgeo4proj4util15BaseObjectNNPtrE(ptr noundef %51, ptr noundef nonnull align 8 dereferenceable(16) %9)
          to label %58 unwind label %59

58:                                               ; preds = %50
  store ptr %57, ptr %4, align 8
  call void @_ZN5osgeo4proj4util15BaseObjectNNPtrD1Ev(ptr noundef nonnull align 8 dereferenceable(16) %9) #19
  br label %63

59:                                               ; preds = %50
  %60 = landingpad { ptr, i32 }
          cleanup
  %61 = extractvalue { ptr, i32 } %60, 0
  store ptr %61, ptr %10, align 8
  %62 = extractvalue { ptr, i32 } %60, 1
  store i32 %62, ptr %11, align 4
  call void @_ZN5osgeo4proj4util15BaseObjectNNPtrD1Ev(ptr noundef nonnull align 8 dereferenceable(16) %9) #19
  br label %65

63:                                               ; preds = %58, %48, %36, %21
  %64 = load ptr, ptr %4, align 8
  ret ptr %64

65:                                               ; preds = %59
  %66 = load ptr, ptr %10, align 8
  %67 = load i32, ptr %11, align 4
  %68 = insertvalue { ptr, i32 } poison, ptr %66, 0
  %69 = insertvalue { ptr, i32 } %68, i32 %67, 1
  resume { ptr, i32 } %69
}