; Function Attrs: mustprogress uwtable
define noundef ptr @proj_datum_ensemble_get_member(ptr noundef %0, ptr noundef readonly %1, i32 noundef %2) local_unnamed_addr #2 personality ptr @__gxx_personality_v0 {
  %4 = alloca %"struct.osgeo::proj::util::BaseObjectNNPtr", align 8
  %5 = icmp eq ptr %0, null
  br i1 %5, label %6, label %8

6:                                                ; preds = %3
  %7 = tail call noundef ptr @_Z18pj_get_default_ctxv()
  br label %8

8:                                                ; preds = %3, %6
  %.016 = phi ptr [ %7, %6 ], [ %0, %3 ]
  %.not = icmp eq ptr %1, null
  br i1 %.not, label %9, label %10

9:                                                ; preds = %8
  tail call void @_Z22proj_context_errno_setP6pj_ctxi(ptr noundef %.016, i32 noundef 4097)
  tail call fastcc void @_ZL14proj_log_errorP6pj_ctxPKcS2_(ptr noundef %.016, ptr noundef nonnull @__FUNCTION__.proj_datum_ensemble_get_member, ptr noundef nonnull @.str.2)
  br label %50

10:                                               ; preds = %8
  %11 = getelementptr inbounds i8, ptr %1, i64 640
  %12 = load ptr, ptr %11, align 8
  %13 = icmp eq ptr %12, null
  br i1 %13, label %.thread, label %14

14:                                               ; preds = %10
  %15 = tail call ptr @__dynamic_cast(ptr nonnull %12, ptr nonnull @_ZTIN5osgeo4proj4util10BaseObjectE, ptr nonnull @_ZTIN5osgeo4proj5datum13DatumEnsembleE, i64 0) #27
  %.not22 = icmp eq ptr %15, null
  br i1 %.not22, label %.thread, label %16

.thread:                                          ; preds = %10, %14
  tail call fastcc void @_ZL14proj_log_errorP6pj_ctxPKcS2_(ptr noundef %.016, ptr noundef nonnull @__FUNCTION__.proj_datum_ensemble_get_member, ptr noundef nonnull @.str.74)
  br label %50

16:                                               ; preds = %14
  %17 = icmp slt i32 %2, 0
  br i1 %17, label %28, label %18

18:                                               ; preds = %16
  %19 = tail call noundef nonnull align 8 dereferenceable(24) ptr @_ZNK5osgeo4proj5datum13DatumEnsemble6datumsEv(ptr noundef nonnull align 8 dereferenceable(64) %15)
  %20 = getelementptr inbounds i8, ptr %19, i64 8
  %21 = load ptr, ptr %20, align 8
  %22 = load ptr, ptr %19, align 8
  %23 = ptrtoint ptr %21 to i64
  %24 = ptrtoint ptr %22 to i64
  %25 = sub i64 %23, %24
  %26 = lshr exact i64 %25, 4
  %27 = trunc i64 %26 to i32
  %.not23 = icmp sgt i32 %27, %2
  br i1 %.not23, label %29, label %28

28:                                               ; preds = %18, %16
  tail call fastcc void @_ZL14proj_log_errorP6pj_ctxPKcS2_(ptr noundef %.016, ptr noundef nonnull @__FUNCTION__.proj_datum_ensemble_get_member, ptr noundef nonnull @.str.75)
  br label %50

29:                                               ; preds = %18
  %30 = tail call noundef nonnull align 8 dereferenceable(24) ptr @_ZNK5osgeo4proj5datum13DatumEnsemble6datumsEv(ptr noundef nonnull align 8 dereferenceable(64) %15)
  %31 = zext nneg i32 %2 to i64
  %32 = load ptr, ptr %30, align 8
  %33 = getelementptr inbounds %"class.dropbox::oxygen::nn.195", ptr %32, i64 %31
  %34 = load ptr, ptr %33, align 8
  store ptr %34, ptr %4, align 8
  %35 = getelementptr inbounds i8, ptr %4, i64 8
  %36 = getelementptr inbounds i8, ptr %33, i64 8
  %37 = load ptr, ptr %36, align 8
  store ptr %37, ptr %35, align 8
  %.not.i.i.i.i.i = icmp eq ptr %37, null
  br i1 %.not.i.i.i.i.i, label %_ZN5osgeo4proj4util15BaseObjectNNPtrC2INS0_5datum5DatumEEERKN7dropbox6oxygen2nnISt10shared_ptrIT_EEE.exit, label %38

38:                                               ; preds = %29
  %39 = getelementptr inbounds i8, ptr %37, i64 8
  %40 = load i8, ptr @__libc_single_threaded, align 1
  %.not.i.i.i.i.i.i = icmp eq i8 %40, 0
  br i1 %.not.i.i.i.i.i.i, label %44, label %41

41:                                               ; preds = %38
  %42 = load i32, ptr %39, align 4
  %43 = add nsw i32 %42, 1
  store i32 %43, ptr %39, align 4
  br label %_ZN5osgeo4proj4util15BaseObjectNNPtrC2INS0_5datum5DatumEEERKN7dropbox6oxygen2nnISt10shared_ptrIT_EEE.exit

44:                                               ; preds = %38
  %45 = atomicrmw volatile add ptr %39, i32 1 acq_rel, align 4
  br label %_ZN5osgeo4proj4util15BaseObjectNNPtrC2INS0_5datum5DatumEEERKN7dropbox6oxygen2nnISt10shared_ptrIT_EEE.exit

_ZN5osgeo4proj4util15BaseObjectNNPtrC2INS0_5datum5DatumEEERKN7dropbox6oxygen2nnISt10shared_ptrIT_EEE.exit: ; preds = %29, %41, %44
  %46 = invoke noundef ptr @_Z13pj_obj_createP6pj_ctxRKN5osgeo4proj4util15BaseObjectNNPtrE(ptr noundef %.016, ptr noundef nonnull align 8 dereferenceable(16) %4)
          to label %47 unwind label %48

47:                                               ; preds = %_ZN5osgeo4proj4util15BaseObjectNNPtrC2INS0_5datum5DatumEEERKN7dropbox6oxygen2nnISt10shared_ptrIT_EEE.exit
  call void @_ZN5osgeo4proj4util15BaseObjectNNPtrD1Ev(ptr noundef nonnull align 8 dereferenceable(16) %4) #27
  br label %50

48:                                               ; preds = %_ZN5osgeo4proj4util15BaseObjectNNPtrC2INS0_5datum5DatumEEERKN7dropbox6oxygen2nnISt10shared_ptrIT_EEE.exit
  %49 = landingpad { ptr, i32 }
          cleanup
  call void @_ZN5osgeo4proj4util15BaseObjectNNPtrD1Ev(ptr noundef nonnull align 8 dereferenceable(16) %4) #27
  resume { ptr, i32 } %49

50:                                               ; preds = %47, %28, %.thread, %9
  %.0 = phi ptr [ null, %28 ], [ %46, %47 ], [ null, %.thread ], [ null, %9 ]
  ret ptr %.0
}